; Function Attrs: nounwind uwtable
define dso_local i64 @currtid_byrelname(ptr noundef readonly captures(none) %0) local_unnamed_addr #0 {
  %2 = getelementptr inbounds nuw i8, ptr %0, i64 32
  %3 = load i64, ptr %2, align 8
  %4 = inttoptr i64 %3 to ptr
  %5 = tail call ptr @pg_detoast_datum_packed(ptr noundef %4) #11
  %6 = getelementptr inbounds nuw i8, ptr %0, i64 48
  %7 = load i64, ptr %6, align 8
  %8 = inttoptr i64 %7 to ptr
  %9 = tail call ptr @textToQualifiedNameList(ptr noundef %5) #11
  %10 = tail call ptr @makeRangeVarFromNameList(ptr noundef %9) #11
  %11 = tail call ptr @table_openrv(ptr noundef %10, i32 noundef 1) #11
  %12 = tail call fastcc ptr @currtid_internal(ptr noundef %11, ptr noundef %8)
  tail call void @table_close(ptr noundef %11, i32 noundef 1) #11
  %13 = ptrtoint ptr %12 to i64
  ret i64 %13
}